; Function Attrs: nounwind uwtable
define internal void @ResOwnerReleaseSnapshot(i64 noundef %0) #0 {
  %2 = inttoptr i64 %0 to ptr
  %3 = getelementptr inbounds nuw i8, ptr %2, i64 68
  %4 = load i32, ptr %3, align 4
  %5 = add i32 %4, -1
  store i32 %5, ptr %3, align 4
  %6 = icmp eq i32 %5, 0
  br i1 %6, label %7, label %UnregisterSnapshotNoOwner.exit

7:                                                ; preds = %1
  %8 = getelementptr inbounds nuw i8, ptr %2, i64 72
  tail call void @pairingheap_remove(ptr noundef nonnull @RegisteredSnapshots, ptr noundef nonnull %8) #18
  %.pr.i = load i32, ptr %3, align 4
  %9 = icmp eq i32 %.pr.i, 0
  br i1 %9, label %10, label %UnregisterSnapshotNoOwner.exit

10:                                               ; preds = %7
  %11 = getelementptr inbounds nuw i8, ptr %2, i64 64
  %12 = load i32, ptr %11, align 8
  %13 = icmp eq i32 %12, 0
  br i1 %13, label %14, label %UnregisterSnapshotNoOwner.exit

14:                                               ; preds = %10
  tail call void @pfree(ptr noundef nonnull %2) #18
  %15 = load ptr, ptr @ActiveSnapshot, align 8
  %.not.i.i = icmp eq ptr %15, null
  br i1 %.not.i.i, label %16, label %UnregisterSnapshotNoOwner.exit

16:                                               ; preds = %14
  %17 = load ptr, ptr getelementptr inbounds nuw (i8, ptr @RegisteredSnapshots, i64 16), align 8
  %18 = icmp eq ptr %17, null
  br i1 %18, label %.sink.split.i.i, label %19

19:                                               ; preds = %16
  %20 = tail call ptr @pairingheap_first(ptr noundef nonnull @RegisteredSnapshots) #18
  %21 = load ptr, ptr @MyProc, align 8
  %22 = getelementptr inbounds nuw i8, ptr %21, i64 56
  %23 = load i32, ptr %22, align 8
  %24 = getelementptr inbounds i8, ptr %20, i64 -68
  %25 = load i32, ptr %24, align 4
  %26 = tail call zeroext i1 @TransactionIdPrecedes(i32 noundef %23, i32 noundef %25) #18
  br i1 %26, label %27, label %UnregisterSnapshotNoOwner.exit

27:                                               ; preds = %19
  %28 = load i32, ptr %24, align 4
  br label %.sink.split.i.i

.sink.split.i.i:                                  ; preds = %27, %16
  %.sink4.i.i = phi i32 [ %28, %27 ], [ 0, %16 ]
  store i32 %.sink4.i.i, ptr @TransactionXmin, align 4
  %29 = load ptr, ptr @MyProc, align 8
  %30 = getelementptr inbounds nuw i8, ptr %29, i64 56
  store i32 %.sink4.i.i, ptr %30, align 8
  br label %UnregisterSnapshotNoOwner.exit

UnregisterSnapshotNoOwner.exit:                   ; preds = %1, %7, %10, %14, %19, %.sink.split.i.i
  ret void
}